	.file	"tracer.c"
	.text
.Ltext0:
	.section	.rodata
.LC0:
	.string	"byte_offset:%llx\n"
.LC1:
	.string	"errno: %s\n"
.LC2:
	.string	"PEEKDATA: %llx \n"
	.text
	.globl	print_peek_data
	.type	print_peek_data, @function
print_peek_data:
.LFB6:
	.file 1 "util.c"
	.loc 1 13 67
	.cfi_startproc
	endbr64
	pushq	%rbp
	.cfi_def_cfa_offset 16
	.cfi_offset 6, -16
	movq	%rsp, %rbp
	.cfi_def_cfa_register 6
	pushq	%rbx
	subq	$40, %rsp
	.cfi_offset 3, -24
	movl	%edi, -36(%rbp)
	movq	%rsi, -48(%rbp)
	.loc 1 14 3
	movq	-48(%rbp), %rax
	movq	%rax, %rsi
	leaq	.LC0(%rip), %rdi
	movl	$0, %eax
	call	printf@PLT
	.loc 1 16 17
	movq	-48(%rbp), %rdx
	movl	-36(%rbp), %eax
	movl	$0, %ecx
	movl	%eax, %esi
	movl	$2, %edi
	movl	$0, %eax
	call	ptrace@PLT
	movq	%rax, -24(%rbp)
	.loc 1 17 25
	cmpq	$-1, -24(%rbp)
	sete	%bl
	.loc 1 17 28
	call	__errno_location@PLT
	.loc 1 17 27
	movl	(%rax), %eax
	.loc 1 17 25
	testl	%eax, %eax
	setne	%al
	andl	%ebx, %eax
	.loc 1 17 6
	testb	%al, %al
	je	.L2
	.loc 1 18 37
	call	__errno_location@PLT
	.loc 1 18 5
	movl	(%rax), %eax
	movl	%eax, %edi
	call	strerror@PLT
	movq	%rax, %rsi
	leaq	.LC1(%rip), %rdi
	movl	$0, %eax
	call	printf@PLT
.L2:
	.loc 1 20 3
	movq	-24(%rbp), %rax
	movq	%rax, %rsi
	leaq	.LC2(%rip), %rdi
	movl	$0, %eax
	call	printf@PLT
	.loc 1 21 1
	nop
	addq	$40, %rsp
	popq	%rbx
	popq	%rbp
	.cfi_def_cfa 7, 8
	ret
	.cfi_endproc
.LFE6:
	.size	print_peek_data, .-print_peek_data
	.section	.rodata
.LC3:
	.string	"peekdata hexaddr: "
.LC4:
	.string	"%llx"
	.text
	.globl	print_peek_data_interactively
	.type	print_peek_data_interactively, @function
print_peek_data_interactively:
.LFB7:
	.loc 1 23 54
	.cfi_startproc
	endbr64
	pushq	%rbp
	.cfi_def_cfa_offset 16
	.cfi_offset 6, -16
	movq	%rsp, %rbp
	.cfi_def_cfa_register 6
	subq	$32, %rsp
	movl	%edi, -20(%rbp)
	.loc 1 23 54
	movq	%fs:40, %rax
	movq	%rax, -8(%rbp)
	xorl	%eax, %eax
	.loc 1 25 3
	leaq	.LC3(%rip), %rdi
	movl	$0, %eax
	call	printf@PLT
	.loc 1 26 3
	leaq	-16(%rbp), %rax
	movq	%rax, %rsi
	leaq	.LC4(%rip), %rdi
	movl	$0, %eax
	call	__isoc99_scanf@PLT
	.loc 1 27 3
	movq	-16(%rbp), %rdx
	movl	-20(%rbp), %eax
	movq	%rdx, %rsi
	movl	%eax, %edi
	call	print_peek_data
	.loc 1 28 1
	nop
	movq	-8(%rbp), %rax
	xorq	%fs:40, %rax
	je	.L4
	call	__stack_chk_fail@PLT
.L4:
	leave
	.cfi_def_cfa 7, 8
	ret
	.cfi_endproc
.LFE7:
	.size	print_peek_data_interactively, .-print_peek_data_interactively
	.section	.rodata
	.align 8
.LC5:
	.string	"  poke_data called pid:%d, offset:%lld, word:%llx\n"
.LC6:
	.string	"  word:%llx\n"
	.text
	.globl	poke_data
	.type	poke_data, @function
poke_data:
.LFB8:
	.loc 1 30 81
	.cfi_startproc
	endbr64
	pushq	%rbp
	.cfi_def_cfa_offset 16
	.cfi_offset 6, -16
	movq	%rsp, %rbp
	.cfi_def_cfa_register 6
	pushq	%rbx
	subq	$56, %rsp
	.cfi_offset 3, -24
	movl	%edi, -36(%rbp)
	movq	%rsi, -48(%rbp)
	movq	%rdx, -56(%rbp)
	.loc 1 32 3
	movq	-56(%rbp), %rcx
	movq	-48(%rbp), %rdx
	movl	-36(%rbp), %eax
	movl	%eax, %esi
	leaq	.LC5(%rip), %rdi
	movl	$0, %eax
	call	printf@PLT
	.loc 1 33 3
	movq	-56(%rbp), %rax
	movq	%rax, %rsi
	leaq	.LC6(%rip), %rdi
	movl	$0, %eax
	call	printf@PLT
	.loc 1 34 19
	movq	-56(%rbp), %rcx
	movq	-48(%rbp), %rdx
	movl	-36(%rbp), %eax
	movl	%eax, %esi
	movl	$5, %edi
	movl	$0, %eax
	call	ptrace@PLT
	movq	%rax, -24(%rbp)
	.loc 1 35 29
	cmpq	$-1, -24(%rbp)
	sete	%bl
	.loc 1 35 32
	call	__errno_location@PLT
	.loc 1 35 31
	movl	(%rax), %eax
	.loc 1 35 29
	testl	%eax, %eax
	setne	%al
	andl	%ebx, %eax
	.loc 1 35 8
	testb	%al, %al
	je	.L7
	.loc 1 36 37
	call	__errno_location@PLT
	.loc 1 36 5
	movl	(%rax), %eax
	movl	%eax, %edi
	call	strerror@PLT
	movq	%rax, %rsi
	leaq	.LC1(%rip), %rdi
	movl	$0, %eax
	call	printf@PLT
.L7:
	.loc 1 38 1
	nop
	addq	$56, %rsp
	popq	%rbx
	popq	%rbp
	.cfi_def_cfa 7, 8
	ret
	.cfi_endproc
.LFE8:
	.size	poke_data, .-poke_data
	.section	.rodata
.LC7:
	.string	"poke hexaddr: "
.LC8:
	.string	"hexword:"
	.text
	.globl	poke_data_interactively
	.type	poke_data_interactively, @function
poke_data_interactively:
.LFB9:
	.loc 1 40 48
	.cfi_startproc
	endbr64
	pushq	%rbp
	.cfi_def_cfa_offset 16
	.cfi_offset 6, -16
	movq	%rsp, %rbp
	.cfi_def_cfa_register 6
	subq	$48, %rsp
	movl	%edi, -36(%rbp)
	.loc 1 40 48
	movq	%fs:40, %rax
	movq	%rax, -8(%rbp)
	xorl	%eax, %eax
	.loc 1 43 3
	leaq	.LC7(%rip), %rdi
	movl	$0, %eax
	call	printf@PLT
	.loc 1 44 3
	leaq	-24(%rbp), %rax
	movq	%rax, %rsi
	leaq	.LC4(%rip), %rdi
	movl	$0, %eax
	call	__isoc99_scanf@PLT
	.loc 1 45 3
	leaq	.LC8(%rip), %rdi
	movl	$0, %eax
	call	printf@PLT
	.loc 1 46 3
	leaq	-16(%rbp), %rax
	movq	%rax, %rsi
	leaq	.LC4(%rip), %rdi
	movl	$0, %eax
	call	__isoc99_scanf@PLT
	.loc 1 47 3
	movq	-16(%rbp), %rdx
	movq	-24(%rbp), %rcx
	movl	-36(%rbp), %eax
	movq	%rcx, %rsi
	movl	%eax, %edi
	call	poke_data
	.loc 1 49 1
	nop
	movq	-8(%rbp), %rax
	xorq	%fs:40, %rax
	je	.L9
	call	__stack_chk_fail@PLT
.L9:
	leave
	.cfi_def_cfa 7, 8
	ret
	.cfi_endproc
.LFE9:
	.size	poke_data_interactively, .-poke_data_interactively
	.section	.rodata
.LC9:
	.string	"general purpose registers"
.LC10:
	.string	"r15:     %16llx %30s\n"
.LC11:
	.string	"r14:     %16llx\n"
.LC12:
	.string	"r13:     %16llx\n"
.LC13:
	.string	"r12:     %16llx\n"
.LC14:
	.string	"rbp:     %16llx\n"
.LC15:
	.string	"rbx:     %16llx\n"
.LC16:
	.string	"r11:     %16llx\n"
.LC17:
	.string	"r10:     %16llx\n"
.LC18:
	.string	"6."
.LC19:
	.string	"r9:      %16llx   %s\n"
.LC20:
	.string	"5."
.LC21:
	.string	"r8:      %16llx   %s\n"
.LC22:
	.string	"rax:     %16llx\n"
.LC23:
	.string	"4."
.LC24:
	.string	"rcx:     %16llx   %s\n"
.LC25:
	.string	"3."
.LC26:
	.string	"rdx:     %16llx   %s\n"
.LC27:
	.string	"2."
.LC28:
	.string	"rsi:     %16llx   %s\n"
.LC29:
	.string	"1. function/syscall argument"
.LC30:
	.string	"rdi:     %16llx %30s\n"
.LC31:
	.string	"orig_rax:%16llx\n"
.LC32:
	.string	"instruction pointer"
.LC33:
	.string	"rip:     %16llx %30s\n"
.LC34:
	.string	"cs:      %16llx\n"
.LC35:
	.string	"eflags:  %16llx\n"
	.align 8
.LC36:
	.string	"  Stack Pointer (current location in stack)"
.LC37:
	.string	"rsp:     %16llx %30s\n"
.LC38:
	.string	"ss:      %16llx\n"
.LC39:
	.string	"fs_base: %16llx\n"
.LC40:
	.string	"gs_base: %16llx\n"
.LC41:
	.string	"ds:      %16llx\n"
.LC42:
	.string	"es:      %16llx\n"
.LC43:
	.string	"fs:      %16llx\n"
.LC44:
	.string	"gs:      %16llx\n"
	.text
	.globl	print_user_regs_struct
	.type	print_user_regs_struct, @function
print_user_regs_struct:
.LFB10:
	.loc 1 51 59
	.cfi_startproc
	endbr64
	pushq	%rbp
	.cfi_def_cfa_offset 16
	.cfi_offset 6, -16
	movq	%rsp, %rbp
	.cfi_def_cfa_register 6
	.loc 1 52 3
	movq	16(%rbp), %rax
	leaq	.LC9(%rip), %rdx
	movq	%rax, %rsi
	leaq	.LC10(%rip), %rdi
	movl	$0, %eax
	call	printf@PLT
	.loc 1 53 3
	movq	24(%rbp), %rax
	movq	%rax, %rsi
	leaq	.LC11(%rip), %rdi
	movl	$0, %eax
	call	printf@PLT
	.loc 1 54 3
	movq	32(%rbp), %rax
	movq	%rax, %rsi
	leaq	.LC12(%rip), %rdi
	movl	$0, %eax
	call	printf@PLT
	.loc 1 55 3
	movq	40(%rbp), %rax
	movq	%rax, %rsi
	leaq	.LC13(%rip), %rdi
	movl	$0, %eax
	call	printf@PLT
	.loc 1 56 3
	movq	48(%rbp), %rax
	movq	%rax, %rsi
	leaq	.LC14(%rip), %rdi
	movl	$0, %eax
	call	printf@PLT
	.loc 1 57 3
	movq	56(%rbp), %rax
	movq	%rax, %rsi
	leaq	.LC15(%rip), %rdi
	movl	$0, %eax
	call	printf@PLT
	.loc 1 58 3
	movq	64(%rbp), %rax
	movq	%rax, %rsi
	leaq	.LC16(%rip), %rdi
	movl	$0, %eax
	call	printf@PLT
	.loc 1 59 3
	movq	72(%rbp), %rax
	movq	%rax, %rsi
	leaq	.LC17(%rip), %rdi
	movl	$0, %eax
	call	printf@PLT
	.loc 1 60 3
	movq	80(%rbp), %rax
	leaq	.LC18(%rip), %rdx
	movq	%rax, %rsi
	leaq	.LC19(%rip), %rdi
	movl	$0, %eax
	call	printf@PLT
	.loc 1 61 3
	movq	88(%rbp), %rax
	leaq	.LC20(%rip), %rdx
	movq	%rax, %rsi
	leaq	.LC21(%rip), %rdi
	movl	$0, %eax
	call	printf@PLT
	.loc 1 62 3
	movq	96(%rbp), %rax
	movq	%rax, %rsi
	leaq	.LC22(%rip), %rdi
	movl	$0, %eax
	call	printf@PLT
	.loc 1 63 3
	movq	104(%rbp), %rax
	leaq	.LC23(%rip), %rdx
	movq	%rax, %rsi
	leaq	.LC24(%rip), %rdi
	movl	$0, %eax
	call	printf@PLT
	.loc 1 64 3
	movq	112(%rbp), %rax
	leaq	.LC25(%rip), %rdx
	movq	%rax, %rsi
	leaq	.LC26(%rip), %rdi
	movl	$0, %eax
	call	printf@PLT
	.loc 1 65 3
	movq	120(%rbp), %rax
	leaq	.LC27(%rip), %rdx
	movq	%rax, %rsi
	leaq	.LC28(%rip), %rdi
	movl	$0, %eax
	call	printf@PLT
	.loc 1 66 3
	movq	128(%rbp), %rax
	leaq	.LC29(%rip), %rdx
	movq	%rax, %rsi
	leaq	.LC30(%rip), %rdi
	movl	$0, %eax
	call	printf@PLT
	.loc 1 67 3
	movq	136(%rbp), %rax
	movq	%rax, %rsi
	leaq	.LC31(%rip), %rdi
	movl	$0, %eax
	call	printf@PLT
	.loc 1 68 3
	movq	144(%rbp), %rax
	leaq	.LC32(%rip), %rdx
	movq	%rax, %rsi
	leaq	.LC33(%rip), %rdi
	movl	$0, %eax
	call	printf@PLT
	.loc 1 69 3
	movq	152(%rbp), %rax
	movq	%rax, %rsi
	leaq	.LC34(%rip), %rdi
	movl	$0, %eax
	call	printf@PLT
	.loc 1 70 3
	movq	160(%rbp), %rax
	movq	%rax, %rsi
	leaq	.LC35(%rip), %rdi
	movl	$0, %eax
	call	printf@PLT
	.loc 1 71 3
	movq	168(%rbp), %rax
	leaq	.LC36(%rip), %rdx
	movq	%rax, %rsi
	leaq	.LC37(%rip), %rdi
	movl	$0, %eax
	call	printf@PLT
	.loc 1 72 3
	movq	176(%rbp), %rax
	movq	%rax, %rsi
	leaq	.LC38(%rip), %rdi
	movl	$0, %eax
	call	printf@PLT
	.loc 1 73 3
	movq	184(%rbp), %rax
	movq	%rax, %rsi
	leaq	.LC39(%rip), %rdi
	movl	$0, %eax
	call	printf@PLT
	.loc 1 74 3
	movq	192(%rbp), %rax
	movq	%rax, %rsi
	leaq	.LC40(%rip), %rdi
	movl	$0, %eax
	call	printf@PLT
	.loc 1 75 3
	movq	200(%rbp), %rax
	movq	%rax, %rsi
	leaq	.LC41(%rip), %rdi
	movl	$0, %eax
	call	printf@PLT
	.loc 1 76 3
	movq	208(%rbp), %rax
	movq	%rax, %rsi
	leaq	.LC42(%rip), %rdi
	movl	$0, %eax
	call	printf@PLT
	.loc 1 77 3
	movq	216(%rbp), %rax
	movq	%rax, %rsi
	leaq	.LC43(%rip), %rdi
	movl	$0, %eax
	call	printf@PLT
	.loc 1 78 3
	movq	224(%rbp), %rax
	movq	%rax, %rsi
	leaq	.LC44(%rip), %rdi
	movl	$0, %eax
	call	printf@PLT
	.loc 1 79 1
	nop
	popq	%rbp
	.cfi_def_cfa 7, 8
	ret
	.cfi_endproc
.LFE10:
	.size	print_user_regs_struct, .-print_user_regs_struct
	.section	.rodata
	.align 8
.LC45:
	.string	"(q)uit, next (s)tep, (p)eek data, (P)oke data, print (r)egisters  "
	.text
	.globl	peekpoke_interactively
	.type	peekpoke_interactively, @function
peekpoke_interactively:
.LFB11:
	.loc 1 81 76
	.cfi_startproc
	endbr64
	pushq	%rbp
	.cfi_def_cfa_offset 16
	.cfi_offset 6, -16
	movq	%rsp, %rbp
	.cfi_def_cfa_register 6
	subq	$32, %rsp
	movl	%edi, -20(%rbp)
	.loc 1 82 3
	leaq	.LC45(%rip), %rdi
	call	puts@PLT
	.loc 1 84 9
	jmp	.L12
.L16:
	.loc 1 85 18
	call	getchar@PLT
	.loc 1 85 16
	movb	%al, -1(%rbp)
	.loc 1 86 7
	cmpb	$10, -1(%rbp)
	je	.L19
	.loc 1 87 7
	movsbl	-1(%rbp), %eax
	cmpl	$114, %eax
	je	.L13
	cmpl	$114, %eax
	jg	.L12
	cmpl	$80, %eax
	je	.L14
	cmpl	$112, %eax
	jne	.L12
	.loc 1 88 18
	movl	-20(%rbp), %eax
	movl	%eax, %edi
	call	print_peek_data_interactively
	.loc 1 88 7
	jmp	.L12
.L14:
	.loc 1 89 18
	movl	-20(%rbp), %eax
	movl	%eax, %edi
	call	poke_data_interactively
	.loc 1 89 7
	jmp	.L12
.L13:
	.loc 1 90 18
	subq	$8, %rsp
	pushq	224(%rbp)
	pushq	216(%rbp)
	pushq	208(%rbp)
	pushq	200(%rbp)
	pushq	192(%rbp)
	pushq	184(%rbp)
	pushq	176(%rbp)
	pushq	168(%rbp)
	pushq	160(%rbp)
	pushq	152(%rbp)
	pushq	144(%rbp)
	pushq	136(%rbp)
	pushq	128(%rbp)
	pushq	120(%rbp)
	pushq	112(%rbp)
	pushq	104(%rbp)
	pushq	96(%rbp)
	pushq	88(%rbp)
	pushq	80(%rbp)
	pushq	72(%rbp)
	pushq	64(%rbp)
	pushq	56(%rbp)
	pushq	48(%rbp)
	pushq	40(%rbp)
	pushq	32(%rbp)
	pushq	24(%rbp)
	pushq	16(%rbp)
	call	print_user_regs_struct
	addq	$224, %rsp
	.loc 1 90 7
	jmp	.L12
.L19:
	.loc 1 92 5
	nop
.L12:
	.loc 1 84 9
	cmpb	$115, -1(%rbp)
	je	.L15
	.loc 1 84 28 discriminator 1
	cmpb	$113, -1(%rbp)
	jne	.L16
.L15:
	.loc 1 95 6
	cmpb	$113, -1(%rbp)
	jne	.L17
	.loc 1 96 11
	movl	$0, %eax
	jmp	.L18
.L17:
	.loc 1 98 11
	movl	$1, %eax
.L18:
	.loc 1 100 1
	leave
	.cfi_def_cfa 7, 8
	ret
	.cfi_endproc
.LFE11:
	.size	peekpoke_interactively, .-peekpoke_interactively
	.comm	tracee_pid,4,4
	.comm	regs,216,32
	.comm	status,4,4
	.globl	keep_looping
	.data
	.type	keep_looping, @object
	.size	keep_looping, 1
keep_looping:
	.byte	1
	.section	.rodata
	.align 8
.LC46:
	.string	"[USAGE]: ./tracer <pid-of-target-process>"
.LC47:
	.string	"[ CURRENT REGISTER STATE ]"
	.text
	.globl	main
	.type	main, @function
main:
.LFB12:
	.file 2 "tracer.c"
	.loc 2 18 33
	.cfi_startproc
	endbr64
	pushq	%rbp
	.cfi_def_cfa_offset 16
	.cfi_offset 6, -16
	movq	%rsp, %rbp
	.cfi_def_cfa_register 6
	subq	$16, %rsp
	movl	%edi, -4(%rbp)
	movq	%rsi, -16(%rbp)
	.loc 2 20 6
	cmpl	$1, -4(%rbp)
	jg	.L21
	.loc 2 21 5
	leaq	.LC46(%rip), %rdi
	call	puts@PLT
	.loc 2 22 12
	movl	$-1, %eax
	jmp	.L22
.L21:
	.loc 2 24 25
	movq	-16(%rbp), %rax
	addq	$8, %rax
	.loc 2 24 16
	movq	(%rax), %rax
	movq	%rax, %rdi
	call	atoi@PLT
	.loc 2 24 14
	movl	%eax, tracee_pid(%rip)
	.loc 2 25 3
	movl	tracee_pid(%rip), %eax
	movl	$0, %ecx
	movl	$0, %edx
	movl	%eax, %esi
	movl	$16, %edi
	movl	$0, %eax
	call	ptrace@PLT
	.loc 2 26 3
	movl	tracee_pid(%rip), %eax
	movl	$0, %edx
	leaq	status(%rip), %rsi
	movl	%eax, %edi
	call	waitpid@PLT
	.loc 2 28 9
	jmp	.L23
.L24:
	.loc 2 29 5
	movl	tracee_pid(%rip), %eax
	movl	$0, %ecx
	movl	$0, %edx
	movl	%eax, %esi
	movl	$9, %edi
	movl	$0, %eax
	call	ptrace@PLT
	.loc 2 30 5
	movl	tracee_pid(%rip), %eax
	movl	$0, %edx
	leaq	status(%rip), %rsi
	movl	%eax, %edi
	call	waitpid@PLT
	.loc 2 31 5
	movl	tracee_pid(%rip), %eax
	leaq	regs(%rip), %rcx
	movl	$0, %edx
	movl	%eax, %esi
	movl	$12, %edi
	movl	$0, %eax
	call	ptrace@PLT
	.loc 2 32 5
	leaq	.LC47(%rip), %rdi
	call	puts@PLT
	.loc 2 33 5
	subq	$8, %rsp
	pushq	208+regs(%rip)
	pushq	200+regs(%rip)
	pushq	192+regs(%rip)
	pushq	184+regs(%rip)
	pushq	176+regs(%rip)
	pushq	168+regs(%rip)
	pushq	160+regs(%rip)
	pushq	152+regs(%rip)
	pushq	144+regs(%rip)
	pushq	136+regs(%rip)
	pushq	128+regs(%rip)
	pushq	120+regs(%rip)
	pushq	112+regs(%rip)
	pushq	104+regs(%rip)
	pushq	96+regs(%rip)
	pushq	88+regs(%rip)
	pushq	80+regs(%rip)
	pushq	72+regs(%rip)
	pushq	64+regs(%rip)
	pushq	56+regs(%rip)
	pushq	48+regs(%rip)
	pushq	40+regs(%rip)
	pushq	32+regs(%rip)
	pushq	24+regs(%rip)
	pushq	16+regs(%rip)
	pushq	8+regs(%rip)
	pushq	regs(%rip)
	call	print_user_regs_struct
	addq	$224, %rsp
	.loc 2 34 20
	movl	tracee_pid(%rip), %eax
	subq	$8, %rsp
	pushq	208+regs(%rip)
	pushq	200+regs(%rip)
	pushq	192+regs(%rip)
	pushq	184+regs(%rip)
	pushq	176+regs(%rip)
	pushq	168+regs(%rip)
	pushq	160+regs(%rip)
	pushq	152+regs(%rip)
	pushq	144+regs(%rip)
	pushq	136+regs(%rip)
	pushq	128+regs(%rip)
	pushq	120+regs(%rip)
	pushq	112+regs(%rip)
	pushq	104+regs(%rip)
	pushq	96+regs(%rip)
	pushq	88+regs(%rip)
	pushq	80+regs(%rip)
	pushq	72+regs(%rip)
	pushq	64+regs(%rip)
	pushq	56+regs(%rip)
	pushq	48+regs(%rip)
	pushq	40+regs(%rip)
	pushq	32+regs(%rip)
	pushq	24+regs(%rip)
	pushq	16+regs(%rip)
	pushq	8+regs(%rip)
	pushq	regs(%rip)
	movl	%eax, %edi
	call	peekpoke_interactively
	addq	$224, %rsp
	.loc 2 34 18
	movb	%al, keep_looping(%rip)
.L23:
	.loc 2 28 23
	movzbl	keep_looping(%rip), %eax
	.loc 2 28 9
	testb	%al, %al
	jne	.L24
	.loc 2 36 3
	movl	tracee_pid(%rip), %eax
	movl	$0, %ecx
	movl	$0, %edx
	movl	%eax, %esi
	movl	$17, %edi
	movl	$0, %eax
	call	ptrace@PLT
	.loc 2 37 10
	movl	$0, %eax
.L22:
	.loc 2 38 1
	leave
	.cfi_def_cfa 7, 8
	ret
	.cfi_endproc
.LFE12:
	.size	main, .-main
.Letext0:
	.file 3 "/usr/include/x86_64-linux-gnu/bits/types.h"
	.file 4 "/usr/include/x86_64-linux-gnu/sys/wait.h"
	.file 5 "/usr/include/signal.h"
	.file 6 "/usr/lib/gcc/x86_64-linux-gnu/9/include/stddef.h"
	.file 7 "/usr/include/unistd.h"
	.file 8 "/usr/include/x86_64-linux-gnu/bits/getopt_core.h"
	.file 9 "/usr/include/x86_64-linux-gnu/bits/types/struct_FILE.h"
	.file 10 "/usr/include/x86_64-linux-gnu/bits/types/FILE.h"
	.file 11 "/usr/include/stdio.h"
	.file 12 "/usr/include/x86_64-linux-gnu/bits/sys_errlist.h"
	.file 13 "/usr/include/x86_64-linux-gnu/sys/user.h"
	.file 14 "/usr/include/x86_64-linux-gnu/sys/ptrace.h"
	.section	.note.GNU-stack,"",@progbits
	.section	.note.gnu.property,"a"
	.align 8
	.long	 1f - 0f
	.long	 4f - 1f
	.long	 5
0:
	.string	 "GNU"
1:
	.align 8
	.long	 0xc0000002
	.long	 3f - 2f
2:
	.long	 0x3
3:
	.align 8
4:
